target datalayout = "e-m:e-p270:32:32-p271:32:32-p272:64:64-i64:64-i128:128-f80:128-n8:16:32:64-S128"
target triple = "x86_64-pc-linux-gnu"

%struct._object = type { %union.anon, ptr }
%union.anon = type { i64 }
%struct.anon = type { i32, i32 }

@ObjExtraData_TypeSpec = internal global { ptr, i32, i32, i32, [4 x i8], ptr } { ptr @.str.30, i32 16, i32 0, i32 17408, [4 x i8] zeroinitializer, ptr @ObjExtraData_Slots }, align 8

; Function Attrs: alwaysinline nounwind uwtable
define internal i32 @_Py_IsImmortal(ptr noundef %0) #3 {
  %2 = alloca ptr, align 8
  store ptr %0, ptr %2, align 8, !tbaa !3
  %3 = load ptr, ptr %2, align 8, !tbaa !3
  %4 = getelementptr inbounds nuw %struct._object, ptr %3, i32 0, i32 0
  %5 = getelementptr inbounds nuw %struct.anon, ptr %4, i32 0, i32 0
  %6 = load i32, ptr %5, align 8, !tbaa !10
  %7 = icmp slt i32 %6, 0
  %8 = zext i1 %7 to i32
  ret i32 %8
}

; Function Attrs: alwaysinline nounwind uwtable
define internal void @Py_DECREF(ptr noundef %0) #3 {
  %2 = alloca ptr, align 8
  store ptr %0, ptr %2, align 8, !tbaa !3
  %3 = load ptr, ptr %2, align 8, !tbaa !3
  %4 = call i32 @_Py_IsImmortal(ptr noundef %3)
  %5 = icmp ne i32 %4, 0
  br i1 %5, label %6, label %7

6:                                                ; preds = %1
  br label %16

7:                                                ; preds = %1
  %8 = load ptr, ptr %2, align 8, !tbaa !3
  %9 = getelementptr inbounds nuw %struct._object, ptr %8, i32 0, i32 0
  %10 = getelementptr inbounds nuw %struct.anon, ptr %9, i32 0, i32 0
  %11 = load i32, ptr %10, align 8, !tbaa !10
  %12 = add i32 %11, -1
  store i32 %12, ptr %10, align 8, !tbaa !10
  %13 = icmp eq i32 %12, 0
  br i1 %13, label %14, label %16

14:                                               ; preds = %7
  %15 = load ptr, ptr %2, align 8, !tbaa !3
  call void @_Py_Dealloc(ptr noundef %15)
  br label %16

16:                                               ; preds = %6, %14, %7
  ret void
}

; Function Attrs: nounwind uwtable
define hidden i32 @_PyTestCapi_Init_GC(ptr noundef %0) #0 {
  %2 = alloca i32, align 4
  %3 = alloca ptr, align 8
  %4 = alloca ptr, align 8
  %5 = alloca i32, align 4
  %6 = alloca i32, align 4
  store ptr %0, ptr %3, align 8, !tbaa !3
  %7 = load ptr, ptr %3, align 8, !tbaa !3
  %8 = call i32 @PyModule_AddFunctions(ptr noundef %7, ptr noundef @test_methods)
  %9 = icmp slt i32 %8, 0
  br i1 %9, label %10, label %11

10:                                               ; preds = %1
  store i32 -1, ptr %2, align 4
  br label %34

11:                                               ; preds = %1
  %12 = load ptr, ptr %3, align 8, !tbaa !3
  %13 = call i32 @PyModule_AddFunctions(ptr noundef %12, ptr noundef @test_methods)
  %14 = icmp slt i32 %13, 0
  br i1 %14, label %15, label %16

15:                                               ; preds = %11
  store i32 -1, ptr %2, align 4
  br label %34

16:                                               ; preds = %11
  call void @llvm.lifetime.start.p0(i64 8, ptr %4) #6
  %17 = load ptr, ptr %3, align 8, !tbaa !3
  %18 = call ptr @PyType_FromModuleAndSpec(ptr noundef %17, ptr noundef @ObjExtraData_TypeSpec, ptr noundef null)
  store ptr %18, ptr %4, align 8, !tbaa !3
  %19 = load ptr, ptr %4, align 8, !tbaa !3
  %20 = icmp eq ptr %19, null
  br i1 %20, label %21, label %22

21:                                               ; preds = %16
  store i32 -1, ptr %2, align 4
  store i32 1, ptr %5, align 4
  br label %33

22:                                               ; preds = %16
  call void @llvm.lifetime.start.p0(i64 4, ptr %6) #6
  %23 = load ptr, ptr %3, align 8, !tbaa !3
  %24 = load ptr, ptr %4, align 8, !tbaa !3
  %25 = call i32 @PyModule_AddType(ptr noundef %23, ptr noundef %24)
  store i32 %25, ptr %6, align 4, !tbaa !8
  %26 = load ptr, ptr %4, align 8, !tbaa !3
  call void @Py_DECREF(ptr noundef %26)
  %27 = load i32, ptr %6, align 4, !tbaa !8
  %28 = icmp slt i32 %27, 0
  br i1 %28, label %29, label %31

29:                                               ; preds = %22
  %30 = load i32, ptr %6, align 4, !tbaa !8
  store i32 %30, ptr %2, align 4
  store i32 1, ptr %5, align 4
  br label %32

31:                                               ; preds = %22
  store i32 0, ptr %2, align 4
  store i32 1, ptr %5, align 4
  br label %32

32:                                               ; preds = %31, %29
  call void @llvm.lifetime.end.p0(i64 4, ptr %6) #6
  br label %33

33:                                               ; preds = %32, %21
  call void @llvm.lifetime.end.p0(i64 8, ptr %4) #6
  br label %34

34:                                               ; preds = %33, %15, %10
  %35 = load i32, ptr %2, align 4
  ret i32 %35
}