; Function Attrs: nounwind uwtable
define hidden range(i32 -2147483648, 1) i32 @_PyTestCapi_Init_GC(ptr noundef %0) local_unnamed_addr #0 {
  %2 = tail call i32 @PyModule_AddFunctions(ptr noundef %0, ptr noundef nonnull @test_methods) #8
  %3 = icmp slt i32 %2, 0
  br i1 %3, label %17, label %4

4:                                                ; preds = %1
  %5 = tail call i32 @PyModule_AddFunctions(ptr noundef %0, ptr noundef nonnull @test_methods) #8
  %6 = icmp slt i32 %5, 0
  br i1 %6, label %17, label %7

7:                                                ; preds = %4
  %8 = tail call ptr @PyType_FromModuleAndSpec(ptr noundef %0, ptr noundef nonnull @ObjExtraData_TypeSpec, ptr noundef null) #8
  %9 = icmp eq ptr %8, null
  br i1 %9, label %17, label %10

10:                                               ; preds = %7
  %11 = tail call i32 @PyModule_AddType(ptr noundef %0, ptr noundef nonnull %8) #8
  %12 = load i32, ptr %8, align 8, !tbaa !3
  %.not.i = icmp sgt i32 %12, -1
  br i1 %.not.i, label %13, label %Py_DECREF.exit

13:                                               ; preds = %10
  %14 = add nsw i32 %12, -1
  store i32 %14, ptr %8, align 8, !tbaa !3
  %15 = icmp eq i32 %14, 0
  br i1 %15, label %16, label %Py_DECREF.exit

16:                                               ; preds = %13
  tail call void @_Py_Dealloc(ptr noundef nonnull %8) #8
  br label %Py_DECREF.exit

Py_DECREF.exit:                                   ; preds = %10, %13, %16
  %. = tail call i32 @llvm.smin.i32(i32 %11, i32 0)
  br label %17

17:                                               ; preds = %Py_DECREF.exit, %7, %4, %1
  %.0 = phi i32 [ -1, %1 ], [ -1, %4 ], [ %., %Py_DECREF.exit ], [ -1, %7 ]
  ret i32 %.0
}